target datalayout = "e-m:e-p270:32:32-p271:32:32-p272:64:64-i64:64-i128:128-f80:128-n8:16:32:64-S128"
target triple = "x86_64-pc-linux-gnu"

%struct.quic_lcidm_st = type { ptr, ptr, ptr, i64 }
%struct.quic_lcid_st = type { %struct.quic_conn_id_st, i64, ptr, i8 }
%struct.quic_conn_id_st = type { i8, [20 x i8] }
%struct.quic_lcidm_conn_st = type { i64, ptr, ptr, ptr, i64, i8 }

@.str = private unnamed_addr constant [33 x i8] c"../openssl/ssl/quic/quic_lcidm.c\00", align 1

; Function Attrs: inlinehint nounwind uwtable
define internal ptr @lh_QUIC_LCID_retrieve(ptr noundef %0, ptr noundef %1) #3 {
  %3 = alloca ptr, align 8
  %4 = alloca ptr, align 8
  store ptr %0, ptr %3, align 8, !tbaa !30
  store ptr %1, ptr %4, align 8, !tbaa !20
  %5 = load ptr, ptr %3, align 8, !tbaa !30
  %6 = load ptr, ptr %4, align 8, !tbaa !20
  %7 = call ptr @OPENSSL_LH_retrieve(ptr noundef %5, ptr noundef %6)
  ret ptr %7
}

; Function Attrs: inlinehint nounwind uwtable
define internal void @lh_QUIC_LCID_free(ptr noundef %0) #3 {
  %2 = alloca ptr, align 8
  store ptr %0, ptr %2, align 8, !tbaa !30
  %3 = load ptr, ptr %2, align 8, !tbaa !30
  call void @OPENSSL_LH_free(ptr noundef %3)
  ret void
}

; Function Attrs: inlinehint nounwind uwtable
define internal ptr @lh_QUIC_LCIDM_CONN_delete(ptr noundef %0, ptr noundef %1) #3 {
  %3 = alloca ptr, align 8
  %4 = alloca ptr, align 8
  store ptr %0, ptr %3, align 8, !tbaa !31
  store ptr %1, ptr %4, align 8, !tbaa !27
  %5 = load ptr, ptr %3, align 8, !tbaa !31
  %6 = load ptr, ptr %4, align 8, !tbaa !27
  %7 = call ptr @OPENSSL_LH_delete(ptr noundef %5, ptr noundef %6)
  ret ptr %7
}

; Function Attrs: inlinehint nounwind uwtable
define internal void @lh_QUIC_LCID_doall_arg(ptr noundef %0, ptr noundef %1, ptr noundef %2) #3 {
  %4 = alloca ptr, align 8
  %5 = alloca ptr, align 8
  %6 = alloca ptr, align 8
  store ptr %0, ptr %4, align 8, !tbaa !30
  store ptr %1, ptr %5, align 8, !tbaa !19
  store ptr %2, ptr %6, align 8, !tbaa !19
  %7 = load ptr, ptr %4, align 8, !tbaa !30
  %8 = load ptr, ptr %5, align 8, !tbaa !19
  %9 = load ptr, ptr %6, align 8, !tbaa !19
  call void @OPENSSL_LH_doall_arg(ptr noundef %7, ptr noundef %8, ptr noundef %9)
  ret void
}

; Function Attrs: inlinehint nounwind uwtable
define internal void @lh_QUIC_LCID_set_down_load(ptr noundef %0, i64 noundef %1) #3 {
  %3 = alloca ptr, align 8
  %4 = alloca i64, align 8
  store ptr %0, ptr %3, align 8, !tbaa !30
  store i64 %1, ptr %4, align 8, !tbaa !8
  %5 = load ptr, ptr %3, align 8, !tbaa !30
  %6 = load i64, ptr %4, align 8, !tbaa !8
  call void @OPENSSL_LH_set_down_load(ptr noundef %5, i64 noundef %6)
  ret void
}

; Function Attrs: nounwind uwtable
define internal ptr @lcidm_get0_lcid(ptr noundef %0, ptr noundef %1) #0 {
  %3 = alloca ptr, align 8
  %4 = alloca ptr, align 8
  %5 = alloca ptr, align 8
  %6 = alloca %struct.quic_lcid_st, align 8
  %7 = alloca i32, align 4
  store ptr %0, ptr %4, align 8, !tbaa !10
  store ptr %1, ptr %5, align 8, !tbaa !33
  call void @llvm.lifetime.start.p0(i64 48, ptr %6) #7
  %8 = getelementptr inbounds nuw %struct.quic_lcid_st, ptr %6, i32 0, i32 0
  %9 = load ptr, ptr %5, align 8, !tbaa !33
  call void @llvm.memcpy.p0.p0.i64(ptr align 8 %8, ptr align 1 %9, i64 21, i1 false), !tbaa.struct !36
  %10 = getelementptr inbounds nuw %struct.quic_lcid_st, ptr %6, i32 0, i32 0
  %11 = getelementptr inbounds nuw %struct.quic_conn_id_st, ptr %10, i32 0, i32 0
  %12 = load i8, ptr %11, align 8, !tbaa !22
  %13 = zext i8 %12 to i32
  %14 = icmp sgt i32 %13, 20
  br i1 %14, label %15, label %16

15:                                               ; preds = %2
  store ptr null, ptr %3, align 8
  store i32 1, ptr %7, align 4
  br label %21

16:                                               ; preds = %2
  %17 = load ptr, ptr %4, align 8, !tbaa !10
  %18 = getelementptr inbounds nuw %struct.quic_lcidm_st, ptr %17, i32 0, i32 1
  %19 = load ptr, ptr %18, align 8, !tbaa !12
  %20 = call ptr @lh_QUIC_LCID_retrieve(ptr noundef %19, ptr noundef %6)
  store ptr %20, ptr %3, align 8
  store i32 1, ptr %7, align 4
  br label %21

21:                                               ; preds = %16, %15
  call void @llvm.lifetime.end.p0(i64 48, ptr %6) #7
  %22 = load ptr, ptr %3, align 8
  ret ptr %22
}

; Function Attrs: nounwind uwtable
define internal void @lcidm_delete_conn(ptr noundef %0, ptr noundef %1) #0 {
  %3 = alloca ptr, align 8
  %4 = alloca ptr, align 8
  store ptr %0, ptr %3, align 8, !tbaa !10
  store ptr %1, ptr %4, align 8, !tbaa !27
  %5 = load ptr, ptr %4, align 8, !tbaa !27
  %6 = getelementptr inbounds nuw %struct.quic_lcidm_conn_st, ptr %5, i32 0, i32 1
  %7 = load ptr, ptr %6, align 8, !tbaa !40
  call void @lh_QUIC_LCID_set_down_load(ptr noundef %7, i64 noundef 0)
  %8 = load ptr, ptr %4, align 8, !tbaa !27
  %9 = getelementptr inbounds nuw %struct.quic_lcidm_conn_st, ptr %8, i32 0, i32 1
  %10 = load ptr, ptr %9, align 8, !tbaa !40
  %11 = load ptr, ptr %3, align 8, !tbaa !10
  call void @lh_QUIC_LCID_doall_arg(ptr noundef %10, ptr noundef @lcidm_delete_conn_lcid_, ptr noundef %11)
  %12 = load ptr, ptr %3, align 8, !tbaa !10
  %13 = getelementptr inbounds nuw %struct.quic_lcidm_st, ptr %12, i32 0, i32 2
  %14 = load ptr, ptr %13, align 8, !tbaa !16
  %15 = load ptr, ptr %4, align 8, !tbaa !27
  %16 = call ptr @lh_QUIC_LCIDM_CONN_delete(ptr noundef %14, ptr noundef %15)
  %17 = load ptr, ptr %4, align 8, !tbaa !27
  %18 = getelementptr inbounds nuw %struct.quic_lcidm_conn_st, ptr %17, i32 0, i32 1
  %19 = load ptr, ptr %18, align 8, !tbaa !40
  call void @lh_QUIC_LCID_free(ptr noundef %19)
  %20 = load ptr, ptr %4, align 8, !tbaa !27
  call void @CRYPTO_free(ptr noundef %20, ptr noundef @.str, i32 noundef 238)
  ret void
}

; Function Attrs: nounwind uwtable
define i32 @ossl_quic_lcidm_lookup(ptr noundef %0, ptr noundef %1, ptr noundef %2, ptr noundef %3) #0 {
  %5 = alloca i32, align 4
  %6 = alloca ptr, align 8
  %7 = alloca ptr, align 8
  %8 = alloca ptr, align 8
  %9 = alloca ptr, align 8
  %10 = alloca ptr, align 8
  %11 = alloca i32, align 4
  store ptr %0, ptr %6, align 8, !tbaa !10
  store ptr %1, ptr %7, align 8, !tbaa !33
  store ptr %2, ptr %8, align 8, !tbaa !43
  store ptr %3, ptr %9, align 8, !tbaa !19
  call void @llvm.lifetime.start.p0(i64 8, ptr %10) #7
  %12 = load ptr, ptr %7, align 8, !tbaa !33
  %13 = icmp eq ptr %12, null
  br i1 %13, label %14, label %15

14:                                               ; preds = %4
  store i32 0, ptr %5, align 4
  store i32 1, ptr %11, align 4
  br label %40

15:                                               ; preds = %4
  %16 = load ptr, ptr %6, align 8, !tbaa !10
  %17 = load ptr, ptr %7, align 8, !tbaa !33
  %18 = call ptr @lcidm_get0_lcid(ptr noundef %16, ptr noundef %17)
  store ptr %18, ptr %10, align 8, !tbaa !20
  %19 = icmp eq ptr %18, null
  br i1 %19, label %20, label %21

20:                                               ; preds = %15
  store i32 0, ptr %5, align 4
  store i32 1, ptr %11, align 4
  br label %40

21:                                               ; preds = %15
  %22 = load ptr, ptr %8, align 8, !tbaa !43
  %23 = icmp ne ptr %22, null
  br i1 %23, label %24, label %29

24:                                               ; preds = %21
  %25 = load ptr, ptr %10, align 8, !tbaa !20
  %26 = getelementptr inbounds nuw %struct.quic_lcid_st, ptr %25, i32 0, i32 1
  %27 = load i64, ptr %26, align 8, !tbaa !38
  %28 = load ptr, ptr %8, align 8, !tbaa !43
  store i64 %27, ptr %28, align 8, !tbaa !8
  br label %29

29:                                               ; preds = %24, %21
  %30 = load ptr, ptr %9, align 8, !tbaa !19
  %31 = icmp ne ptr %30, null
  br i1 %31, label %32, label %39

32:                                               ; preds = %29
  %33 = load ptr, ptr %10, align 8, !tbaa !20
  %34 = getelementptr inbounds nuw %struct.quic_lcid_st, ptr %33, i32 0, i32 2
  %35 = load ptr, ptr %34, align 8, !tbaa !41
  %36 = getelementptr inbounds nuw %struct.quic_lcidm_conn_st, ptr %35, i32 0, i32 2
  %37 = load ptr, ptr %36, align 8, !tbaa !28
  %38 = load ptr, ptr %9, align 8, !tbaa !19
  store ptr %37, ptr %38, align 8, !tbaa !19
  br label %39

39:                                               ; preds = %32, %29
  store i32 1, ptr %5, align 4
  store i32 1, ptr %11, align 4
  br label %40

40:                                               ; preds = %39, %20, %14
  call void @llvm.lifetime.end.p0(i64 8, ptr %10) #7
  %41 = load i32, ptr %5, align 4
  ret i32 %41
}

; Function Attrs: nounwind uwtable
define i32 @ossl_quic_lcidm_bind_channel(ptr noundef %0, ptr noundef %1, ptr noundef %2) #0 {
  %4 = alloca i32, align 4
  %5 = alloca ptr, align 8
  %6 = alloca ptr, align 8
  %7 = alloca ptr, align 8
  %8 = alloca ptr, align 8
  %9 = alloca ptr, align 8
  %10 = alloca i32, align 4
  store ptr %0, ptr %5, align 8, !tbaa !10
  store ptr %1, ptr %6, align 8, !tbaa !19
  store ptr %2, ptr %7, align 8, !tbaa !33
  call void @llvm.lifetime.start.p0(i64 8, ptr %8) #7
  call void @llvm.lifetime.start.p0(i64 8, ptr %9) #7
  %11 = load ptr, ptr %5, align 8, !tbaa !10
  %12 = load ptr, ptr %7, align 8, !tbaa !33
  %13 = call i32 @ossl_quic_lcidm_lookup(ptr noundef %11, ptr noundef %12, ptr noundef null, ptr noundef null)
  %14 = icmp ne i32 %13, 0
  br i1 %14, label %15, label %16

15:                                               ; preds = %3
  store i32 0, ptr %4, align 4
  store i32 1, ptr %10, align 4
  br label %46

16:                                               ; preds = %3
  %17 = load ptr, ptr %5, align 8, !tbaa !10
  %18 = load ptr, ptr %6, align 8, !tbaa !19
  %19 = call ptr @lcidm_upsert_conn(ptr noundef %17, ptr noundef %18)
  store ptr %19, ptr %8, align 8, !tbaa !27
  %20 = icmp eq ptr %19, null
  br i1 %20, label %21, label %22

21:                                               ; preds = %16
  store i32 0, ptr %4, align 4
  store i32 1, ptr %10, align 4
  br label %46

22:                                               ; preds = %16
  %23 = load ptr, ptr %5, align 8, !tbaa !10
  %24 = load ptr, ptr %8, align 8, !tbaa !27
  %25 = load ptr, ptr %7, align 8, !tbaa !33
  %26 = call ptr @lcidm_conn_new_lcid(ptr noundef %23, ptr noundef %24, ptr noundef %25)
  store ptr %26, ptr %9, align 8, !tbaa !20
  %27 = icmp eq ptr %26, null
  br i1 %27, label %28, label %31

28:                                               ; preds = %22
  %29 = load ptr, ptr %5, align 8, !tbaa !10
  %30 = load ptr, ptr %8, align 8, !tbaa !27
  call void @lcidm_delete_conn(ptr noundef %29, ptr noundef %30)
  store i32 0, ptr %4, align 4
  store i32 1, ptr %10, align 4
  br label %46

31:                                               ; preds = %22
  %32 = load ptr, ptr %8, align 8, !tbaa !27
  %33 = getelementptr inbounds nuw %struct.quic_lcidm_conn_st, ptr %32, i32 0, i32 4
  %34 = load i64, ptr %33, align 8, !tbaa !45
  %35 = load ptr, ptr %9, align 8, !tbaa !20
  %36 = getelementptr inbounds nuw %struct.quic_lcid_st, ptr %35, i32 0, i32 1
  store i64 %34, ptr %36, align 8, !tbaa !38
  %37 = load ptr, ptr %9, align 8, !tbaa !20
  %38 = getelementptr inbounds nuw %struct.quic_lcid_st, ptr %37, i32 0, i32 3
  %39 = load i8, ptr %38, align 8
  %40 = and i8 %39, -4
  %41 = or i8 %40, 1
  store i8 %41, ptr %38, align 8
  %42 = load ptr, ptr %8, align 8, !tbaa !27
  %43 = getelementptr inbounds nuw %struct.quic_lcidm_conn_st, ptr %42, i32 0, i32 4
  %44 = load i64, ptr %43, align 8, !tbaa !45
  %45 = add i64 %44, 1
  store i64 %45, ptr %43, align 8, !tbaa !45
  store i32 1, ptr %4, align 4
  store i32 1, ptr %10, align 4
  br label %46

46:                                               ; preds = %31, %28, %21, %15
  call void @llvm.lifetime.end.p0(i64 8, ptr %9) #7
  call void @llvm.lifetime.end.p0(i64 8, ptr %8) #7
  %47 = load i32, ptr %4, align 4
  ret i32 %47
}