; Function Attrs: nounwind uwtable
define range(i32 0, 2) i32 @ossl_quic_lcidm_bind_channel(ptr noundef %0, ptr noundef %1, ptr noundef readonly captures(address_is_null) %2) local_unnamed_addr #0 {
  %4 = alloca %struct.quic_lcid_st, align 8
  %5 = icmp eq ptr %2, null
  br i1 %5, label %13, label %6

6:                                                ; preds = %3
  call void @llvm.lifetime.start.p0(i64 48, ptr nonnull %4) #11
  call void @llvm.memcpy.p0.p0.i64(ptr noundef nonnull align 8 dereferenceable(21) %4, ptr noundef nonnull readonly align 1 dereferenceable(21) %2, i64 21, i1 false), !tbaa.struct !29
  %7 = load i8, ptr %4, align 8, !tbaa !15
  %8 = icmp ugt i8 %7, 20
  br i1 %8, label %lcidm_get0_lcid.exit.thread.i, label %lcidm_get0_lcid.exit.i

lcidm_get0_lcid.exit.thread.i:                    ; preds = %6
  call void @llvm.lifetime.end.p0(i64 48, ptr nonnull %4) #11
  br label %13

lcidm_get0_lcid.exit.i:                           ; preds = %6
  %9 = getelementptr inbounds nuw i8, ptr %0, i64 8
  %10 = load ptr, ptr %9, align 8, !tbaa !3
  %11 = call ptr @OPENSSL_LH_retrieve(ptr noundef %10, ptr noundef nonnull %4) #11
  call void @llvm.lifetime.end.p0(i64 48, ptr nonnull %4) #11
  %12 = icmp eq ptr %11, null
  br i1 %12, label %13, label %ossl_quic_lcidm_lookup.exit

13:                                               ; preds = %3, %lcidm_get0_lcid.exit.i, %lcidm_get0_lcid.exit.thread.i
  %14 = call fastcc ptr @lcidm_upsert_conn(ptr noundef %0, ptr noundef %1)
  %15 = icmp eq ptr %14, null
  br i1 %15, label %ossl_quic_lcidm_lookup.exit, label %16

16:                                               ; preds = %13
  %17 = call fastcc ptr @lcidm_conn_new_lcid(ptr noundef %0, ptr noundef %14, ptr noundef %2)
  %18 = icmp eq ptr %17, null
  br i1 %18, label %19, label %27

19:                                               ; preds = %16
  %20 = getelementptr inbounds nuw i8, ptr %14, i64 8
  %21 = load ptr, ptr %20, align 8, !tbaa !27
  call void @OPENSSL_LH_set_down_load(ptr noundef %21, i64 noundef 0) #11
  %22 = load ptr, ptr %20, align 8, !tbaa !27
  call void @OPENSSL_LH_doall_arg(ptr noundef %22, ptr noundef nonnull @lcidm_delete_conn_lcid_, ptr noundef %0) #11
  %23 = getelementptr inbounds nuw i8, ptr %0, i64 16
  %24 = load ptr, ptr %23, align 8, !tbaa !12
  %25 = call ptr @OPENSSL_LH_delete(ptr noundef %24, ptr noundef nonnull %14) #11
  %26 = load ptr, ptr %20, align 8, !tbaa !27
  call void @OPENSSL_LH_free(ptr noundef %26) #11
  call void @CRYPTO_free(ptr noundef nonnull %14, ptr noundef nonnull @.str, i32 noundef 238) #11
  br label %ossl_quic_lcidm_lookup.exit

27:                                               ; preds = %16
  %28 = getelementptr inbounds nuw i8, ptr %14, i64 32
  %29 = load i64, ptr %28, align 8, !tbaa !33
  %30 = getelementptr inbounds nuw i8, ptr %17, i64 24
  store i64 %29, ptr %30, align 8, !tbaa !30
  %31 = getelementptr inbounds nuw i8, ptr %17, i64 40
  %32 = load i8, ptr %31, align 8
  %33 = and i8 %32, -4
  %34 = or disjoint i8 %33, 1
  store i8 %34, ptr %31, align 8
  %35 = load i64, ptr %28, align 8, !tbaa !33
  %36 = add i64 %35, 1
  store i64 %36, ptr %28, align 8, !tbaa !33
  br label %ossl_quic_lcidm_lookup.exit

ossl_quic_lcidm_lookup.exit:                      ; preds = %lcidm_get0_lcid.exit.i, %13, %27, %19
  %.0 = phi i32 [ 0, %19 ], [ 1, %27 ], [ 0, %13 ], [ 0, %lcidm_get0_lcid.exit.i ]
  ret i32 %.0
}